target datalayout = "e-m:e-p270:32:32-p271:32:32-p272:64:64-i64:64-i128:128-f80:128-n8:16:32:64-S128"
target triple = "x86_64-pc-linux-gnu"

%struct.Pdr_Set_t_ = type { i64, i32, i32, i32, [0 x i32] }

; Function Attrs: nounwind uwtable
define i32 @Pdr_SetContainsSimple(ptr noundef %0, ptr noundef %1) #0 {
  %3 = alloca i32, align 4
  %4 = alloca ptr, align 8
  %5 = alloca ptr, align 8
  %6 = alloca ptr, align 8
  %7 = alloca ptr, align 8
  store ptr %0, ptr %4, align 8
  store ptr %1, ptr %5, align 8
  %8 = load ptr, ptr %4, align 8
  %9 = getelementptr inbounds %struct.Pdr_Set_t_, ptr %8, i32 0, i32 4
  %10 = getelementptr inbounds [0 x i32], ptr %9, i64 0, i64 0
  %11 = load ptr, ptr %4, align 8
  %12 = getelementptr inbounds %struct.Pdr_Set_t_, ptr %11, i32 0, i32 3
  %13 = load i32, ptr %12, align 8
  %14 = sext i32 %13 to i64
  %15 = getelementptr inbounds i32, ptr %10, i64 %14
  %16 = getelementptr inbounds i32, ptr %15, i64 -1
  store ptr %16, ptr %6, align 8
  %17 = load ptr, ptr %5, align 8
  %18 = getelementptr inbounds %struct.Pdr_Set_t_, ptr %17, i32 0, i32 4
  %19 = getelementptr inbounds [0 x i32], ptr %18, i64 0, i64 0
  %20 = load ptr, ptr %5, align 8
  %21 = getelementptr inbounds %struct.Pdr_Set_t_, ptr %20, i32 0, i32 3
  %22 = load i32, ptr %21, align 8
  %23 = sext i32 %22 to i64
  %24 = getelementptr inbounds i32, ptr %19, i64 %23
  %25 = getelementptr inbounds i32, ptr %24, i64 -1
  store ptr %25, ptr %7, align 8
  br label %26

26:                                               ; preds = %68, %36, %2
  %27 = load ptr, ptr %5, align 8
  %28 = getelementptr inbounds %struct.Pdr_Set_t_, ptr %27, i32 0, i32 4
  %29 = getelementptr inbounds [0 x i32], ptr %28, i64 0, i64 0
  %30 = load ptr, ptr %7, align 8
  %31 = icmp ule ptr %29, %30
  br i1 %31, label %32, label %69

32:                                               ; preds = %26
  %33 = load ptr, ptr %7, align 8
  %34 = load i32, ptr %33, align 4
  %35 = icmp eq i32 %34, -1
  br i1 %35, label %36, label %39

36:                                               ; preds = %32
  %37 = load ptr, ptr %7, align 8
  %38 = getelementptr inbounds i32, ptr %37, i32 -1
  store ptr %38, ptr %7, align 8
  br label %26, !llvm.loop !23

39:                                               ; preds = %32
  %40 = load ptr, ptr %4, align 8
  %41 = getelementptr inbounds %struct.Pdr_Set_t_, ptr %40, i32 0, i32 4
  %42 = getelementptr inbounds [0 x i32], ptr %41, i64 0, i64 0
  %43 = load ptr, ptr %6, align 8
  %44 = icmp ugt ptr %42, %43
  br i1 %44, label %45, label %46

45:                                               ; preds = %39
  store i32 0, ptr %3, align 4
  br label %70

46:                                               ; preds = %39
  %47 = load ptr, ptr %7, align 8
  %48 = load i32, ptr %47, align 4
  %49 = load ptr, ptr %6, align 8
  %50 = load i32, ptr %49, align 4
  %51 = icmp eq i32 %48, %50
  br i1 %51, label %52, label %57

52:                                               ; preds = %46
  %53 = load ptr, ptr %7, align 8
  %54 = getelementptr inbounds i32, ptr %53, i32 -1
  store ptr %54, ptr %7, align 8
  %55 = load ptr, ptr %6, align 8
  %56 = getelementptr inbounds i32, ptr %55, i32 -1
  store ptr %56, ptr %6, align 8
  br label %68

57:                                               ; preds = %46
  %58 = load ptr, ptr %7, align 8
  %59 = load i32, ptr %58, align 4
  %60 = load ptr, ptr %6, align 8
  %61 = load i32, ptr %60, align 4
  %62 = icmp slt i32 %59, %61
  br i1 %62, label %63, label %66

63:                                               ; preds = %57
  %64 = load ptr, ptr %6, align 8
  %65 = getelementptr inbounds i32, ptr %64, i32 -1
  store ptr %65, ptr %6, align 8
  br label %67

66:                                               ; preds = %57
  store i32 0, ptr %3, align 4
  br label %70

67:                                               ; preds = %63
  br label %68

68:                                               ; preds = %67, %52
  br label %26, !llvm.loop !23

69:                                               ; preds = %26
  store i32 1, ptr %3, align 4
  br label %70

70:                                               ; preds = %69, %66, %45
  %71 = load i32, ptr %3, align 4
  ret i32 %71
}