; Function Attrs: nofree norecurse nosync nounwind memory(argmem: read) uwtable
define range(i32 0, 2) i32 @Pdr_SetContainsSimple(ptr noundef readonly captures(none) %0, ptr noundef readonly captures(none) %1) local_unnamed_addr #11 {
  %3 = getelementptr inbounds nuw i8, ptr %1, i64 16
  %4 = load i32, ptr %3, align 8
  %.not3840 = icmp slt i32 %4, 1
  br i1 %.not3840, label %.loopexit, label %.lr.ph.preheader

.lr.ph.preheader:                                 ; preds = %2
  %5 = zext nneg i32 %4 to i64
  %.idx = shl nuw nsw i64 %5, 2
  %.add22 = add nuw nsw i64 %.idx, 16
  %6 = getelementptr inbounds nuw i8, ptr %0, i64 16
  %7 = load i32, ptr %6, align 8
  %8 = sext i32 %7 to i64
  %.idx28 = shl nsw i64 %8, 2
  %.add29 = add nsw i64 %.idx28, 16
  br label %.lr.ph

.lr.ph:                                           ; preds = %.lr.ph.preheader, %.outer
  %.0.idx.ph42 = phi i64 [ %.1.idx, %.outer ], [ %.add22, %.lr.ph.preheader ]
  %.017.idx.ph41 = phi i64 [ %.118.idx, %.outer ], [ %.add29, %.lr.ph.preheader ]
  br label %9

9:                                                ; preds = %.lr.ph, %12
  %.0.idx39 = phi i64 [ %.0.idx.ph42, %.lr.ph ], [ %.0.add, %12 ]
  %.0.ptr = getelementptr inbounds nuw i8, ptr %1, i64 %.0.idx39
  %10 = load i32, ptr %.0.ptr, align 4
  %11 = icmp eq i32 %10, -1
  br i1 %11, label %12, label %13

12:                                               ; preds = %9
  %.0.add = add nsw i64 %.0.idx39, -4
  %.not = icmp slt i64 %.0.idx39, 24
  br i1 %.not, label %.loopexit, label %9, !llvm.loop !19

13:                                               ; preds = %9
  %14 = icmp slt i64 %.017.idx.ph41, 20
  br i1 %14, label %.loopexit, label %15

15:                                               ; preds = %13
  %.017.ptr.le = getelementptr inbounds nuw i8, ptr %0, i64 %.017.idx.ph41
  %16 = load i32, ptr %.017.ptr.le, align 4
  %17 = icmp eq i32 %10, %16
  br i1 %17, label %18, label %19

18:                                               ; preds = %15
  %.0.add23 = add nsw i64 %.0.idx39, -4
  br label %.outer

19:                                               ; preds = %15
  %20 = icmp slt i32 %10, %16
  br i1 %20, label %.outer, label %.loopexit

.outer:                                           ; preds = %19, %18
  %.1.idx = phi i64 [ %.0.add23, %18 ], [ %.0.idx39, %19 ]
  %.118.idx = add nsw i64 %.017.idx.ph41, -4
  %.not38 = icmp slt i64 %.1.idx, 20
  br i1 %.not38, label %.loopexit, label %.lr.ph, !llvm.loop !19

.loopexit:                                        ; preds = %19, %13, %.outer, %12, %2
  %.019 = phi i32 [ 1, %2 ], [ 1, %12 ], [ 1, %.outer ], [ 0, %13 ], [ 0, %19 ]
  ret i32 %.019
}